; Function Attrs: nounwind uwtable
define void @lv_led_toggle(ptr noundef %0) local_unnamed_addr #0 {
  %.not.i = icmp eq ptr %0, null
  br i1 %.not.i, label %.preheader.i, label %lv_led_get_brightness.exit

.preheader.i:                                     ; preds = %1, %.preheader.i
  br label %.preheader.i

lv_led_get_brightness.exit:                       ; preds = %1
  %2 = getelementptr inbounds nuw i8, ptr %0, i64 67
  %3 = load i8, ptr %2, align 1, !tbaa !3
  %4 = icmp ugt i8 %3, -89
  %. = select i1 %4, i8 80, i8 -1
  store i8 %., ptr %2, align 1, !tbaa !3
  tail call void @lv_obj_invalidate(ptr noundef nonnull %0) #5
  ret void
}